target datalayout = "e-m:e-p270:32:32-p271:32:32-p272:64:64-i64:64-i128:128-f80:128-n8:16:32:64-S128"
target triple = "x86_64-pc-linux-gnu"

%struct.ssl_st = type { i32, i16, i16, ptr, ptr, ptr, ptr, ptr, i32, i32, ptr, ptr, i32, i32, ptr, ptr, ptr, ptr, ptr, ptr, ptr, ptr, i32, i32, [32 x i8], ptr, ptr, ptr, ptr, ptr, ptr, ptr, i64, %struct.crypto_ex_data_st, ptr, i32, i32, i32, i32, i16, ptr, i32, i64, ptr, ptr, ptr, ptr, ptr, ptr, i32, i32, ptr, ptr, i8, i8, i32 }
%struct.crypto_ex_data_st = type { ptr }
%struct.cbb_st = type { ptr, ptr, i64, i8, i8, i8 }
%struct.ssl_ctx_st = type { ptr, %union.crypto_mutex_st, i16, i16, ptr, ptr, ptr, ptr, ptr, ptr, i64, ptr, ptr, i32, i32, i64, ptr, ptr, ptr, i32, ptr, ptr, ptr, ptr, ptr, ptr, %struct.crypto_ex_data_st, ptr, ptr, ptr, ptr, i32, i32, i32, ptr, ptr, ptr, i32, i32, [32 x i8], ptr, ptr, ptr, ptr, i16, ptr, ptr, [16 x i8], [16 x i8], [16 x i8], ptr, ptr, ptr, ptr, i8, ptr, ptr, ptr, ptr, ptr, ptr, ptr, i32, ptr, i64, ptr, ptr, ptr, i64, ptr, i64, ptr, ptr, i8, ptr, i32 }
%union.crypto_mutex_st = type { double, [48 x i8] }

; Function Attrs: nounwind uwtable
define internal i32 @ext_sct_add_serverhello(ptr noundef %0, ptr noundef %1) #0 {
  %3 = alloca i32, align 4
  %4 = alloca ptr, align 8
  %5 = alloca ptr, align 8
  %6 = alloca %struct.cbb_st, align 8
  store ptr %0, ptr %4, align 8, !tbaa !69
  store ptr %1, ptr %5, align 8, !tbaa !128
  %7 = load ptr, ptr %4, align 8, !tbaa !69
  %8 = getelementptr inbounds nuw %struct.ssl_st, ptr %7, i32 0, i32 54
  %9 = load i8, ptr %8, align 1
  %10 = and i8 %9, 1
  %11 = zext i8 %10 to i32
  %12 = icmp ne i32 %11, 0
  br i1 %12, label %20, label %13

13:                                               ; preds = %2
  %14 = load ptr, ptr %4, align 8, !tbaa !69
  %15 = getelementptr inbounds nuw %struct.ssl_st, ptr %14, i32 0, i32 31
  %16 = load ptr, ptr %15, align 8, !tbaa !145
  %17 = getelementptr inbounds nuw %struct.ssl_ctx_st, ptr %16, i32 0, i32 68
  %18 = load i64, ptr %17, align 8, !tbaa !200
  %19 = icmp eq i64 %18, 0
  br i1 %19, label %20, label %21

20:                                               ; preds = %13, %2
  store i32 1, ptr %3, align 4
  br label %49

21:                                               ; preds = %13
  call void @llvm.lifetime.start.p0(i64 32, ptr %6) #8
  %22 = load ptr, ptr %5, align 8, !tbaa !128
  %23 = call i32 @CBB_add_u16(ptr noundef %22, i16 noundef zeroext 18)
  %24 = icmp ne i32 %23, 0
  br i1 %24, label %25, label %46

25:                                               ; preds = %21
  %26 = load ptr, ptr %5, align 8, !tbaa !128
  %27 = call i32 @CBB_add_u16_length_prefixed(ptr noundef %26, ptr noundef %6)
  %28 = icmp ne i32 %27, 0
  br i1 %28, label %29, label %46

29:                                               ; preds = %25
  %30 = load ptr, ptr %4, align 8, !tbaa !69
  %31 = getelementptr inbounds nuw %struct.ssl_st, ptr %30, i32 0, i32 31
  %32 = load ptr, ptr %31, align 8, !tbaa !145
  %33 = getelementptr inbounds nuw %struct.ssl_ctx_st, ptr %32, i32 0, i32 67
  %34 = load ptr, ptr %33, align 8, !tbaa !201
  %35 = load ptr, ptr %4, align 8, !tbaa !69
  %36 = getelementptr inbounds nuw %struct.ssl_st, ptr %35, i32 0, i32 31
  %37 = load ptr, ptr %36, align 8, !tbaa !145
  %38 = getelementptr inbounds nuw %struct.ssl_ctx_st, ptr %37, i32 0, i32 68
  %39 = load i64, ptr %38, align 8, !tbaa !200
  %40 = call i32 @CBB_add_bytes(ptr noundef %6, ptr noundef %34, i64 noundef %39)
  %41 = icmp ne i32 %40, 0
  br i1 %41, label %42, label %46

42:                                               ; preds = %29
  %43 = load ptr, ptr %5, align 8, !tbaa !128
  %44 = call i32 @CBB_flush(ptr noundef %43)
  %45 = icmp ne i32 %44, 0
  br label %46

46:                                               ; preds = %42, %29, %25, %21
  %47 = phi i1 [ false, %29 ], [ false, %25 ], [ false, %21 ], [ %45, %42 ]
  %48 = zext i1 %47 to i32
  store i32 %48, ptr %3, align 4
  call void @llvm.lifetime.end.p0(i64 32, ptr %6) #8
  br label %49

49:                                               ; preds = %46, %20
  %50 = load i32, ptr %3, align 4
  ret i32 %50
}