; Function Attrs: nounwind uwtable
define internal range(i32 0, 2) i32 @ext_sct_add_serverhello(ptr noundef readonly captures(none) %0, ptr noundef %1) #0 {
  %3 = alloca %struct.cbb_st, align 8
  %4 = getelementptr inbounds nuw i8, ptr %0, i64 385
  %5 = load i8, ptr %4, align 1
  %6 = and i8 %5, 1
  %.not = icmp eq i8 %6, 0
  br i1 %.not, label %7, label %30

7:                                                ; preds = %2
  %8 = getelementptr inbounds nuw i8, ptr %0, i64 232
  %9 = load ptr, ptr %8, align 8, !tbaa !122
  %10 = getelementptr inbounds nuw i8, ptr %9, i64 608
  %11 = load i64, ptr %10, align 8, !tbaa !169
  %12 = icmp eq i64 %11, 0
  br i1 %12, label %30, label %13

13:                                               ; preds = %7
  call void @llvm.lifetime.start.p0(i64 32, ptr nonnull %3) #21
  %14 = tail call i32 @CBB_add_u16(ptr noundef %1, i16 noundef zeroext 18) #21
  %.not7 = icmp eq i32 %14, 0
  br i1 %.not7, label %28, label %15

15:                                               ; preds = %13
  %16 = call i32 @CBB_add_u16_length_prefixed(ptr noundef %1, ptr noundef nonnull %3) #21
  %.not8 = icmp eq i32 %16, 0
  br i1 %.not8, label %28, label %17

17:                                               ; preds = %15
  %18 = load ptr, ptr %8, align 8, !tbaa !122
  %19 = getelementptr inbounds nuw i8, ptr %18, i64 600
  %20 = load ptr, ptr %19, align 8, !tbaa !170
  %21 = getelementptr inbounds nuw i8, ptr %18, i64 608
  %22 = load i64, ptr %21, align 8, !tbaa !169
  %23 = call i32 @CBB_add_bytes(ptr noundef nonnull %3, ptr noundef %20, i64 noundef %22) #21
  %.not9 = icmp eq i32 %23, 0
  br i1 %.not9, label %28, label %24

24:                                               ; preds = %17
  %25 = call i32 @CBB_flush(ptr noundef %1) #21
  %26 = icmp ne i32 %25, 0
  %27 = zext i1 %26 to i32
  br label %28

28:                                               ; preds = %24, %17, %15, %13
  %29 = phi i32 [ 0, %17 ], [ 0, %15 ], [ 0, %13 ], [ %27, %24 ]
  call void @llvm.lifetime.end.p0(i64 32, ptr nonnull %3) #21
  br label %30

30:                                               ; preds = %2, %7, %28
  %.0 = phi i32 [ %29, %28 ], [ 1, %7 ], [ 1, %2 ]
  ret i32 %.0
}